	.file	"main.c"
	.text
.Ltext0:
	.file 0 "/home/black_desk/workspace/source/thp-test/teststackc" "./main.c"
	.globl	cnt
	.bss
	.align 4
	.type	cnt, @object
	.size	cnt, 4
cnt:
	.zero	4
	.text
	.globl	f
	.type	f, @function
f:
.LFB0:
	.file 1 "./main.c"
	.loc 1 7 1
	.cfi_startproc
	pushq	%rbp
	.cfi_def_cfa_offset 16
	.cfi_offset 6, -16
	movq	%rsp, %rbp
	.cfi_def_cfa_register 6
	subq	$4194320, %rsp
	.loc 1 7 1
	movq	%fs:40, %rax
	movq	%rax, -8(%rbp)
	xorl	%eax, %eax
	.loc 1 8 17
	movl	cnt(%rip), %eax
	.loc 1 8 12
	cmpl	$10, %eax
	jne	.L2
.L3:
	.loc 1 9 23 discriminator 1
	jmp	.L3
.L2:
	.loc 1 13 25
	movl	$0, -2097172(%rbp)
	.loc 1 14 12
	movl	cnt(%rip), %eax
	addl	$1, %eax
	movl	%eax, cnt(%rip)
	.loc 1 15 9
	movl	$0, %eax
	call	f
	.loc 1 16 1
	nop
	movq	-8(%rbp), %rax
	subq	%fs:40, %rax
	je	.L4
	call	__stack_chk_fail@PLT
.L4:
	leave
	.cfi_def_cfa 7, 8
	ret
	.cfi_endproc
.LFE0:
	.size	f, .-f
	.globl	main
	.type	main, @function
main:
.LFB1:
	.loc 1 19 1
	.cfi_startproc
	pushq	%rbp
	.cfi_def_cfa_offset 16
	.cfi_offset 6, -16
	movq	%rsp, %rbp
	.cfi_def_cfa_register 6
	.loc 1 20 9
	movl	$0, %eax
	call	f
	.loc 1 21 16
	movl	$0, %eax
	.loc 1 22 1
	popq	%rbp
	.cfi_def_cfa 7, 8
	ret
	.cfi_endproc
.LFE1:
	.size	main, .-main
.Letext0:
	.section	.note.GNU-stack,"",@progbits
